target datalayout = "e-m:e-p270:32:32-p271:32:32-p272:64:64-i64:64-i128:128-f80:128-n8:16:32:64-S128"
target triple = "x86_64-pc-linux-gnu"

@H5P_init_g = external global i8, align 1
@H5_libterm_g = external global i8, align 1
@.str.2 = private unnamed_addr constant [101 x i8] c"generated/home/dtcxzyw/WorkSpace/Projects/compilers/llvm-opt-benchmark/bench/hdf5/hdf5/src/H5Pfapl.c\00", align 1
@H5E_VFL_g = external global i64, align 8
@H5E_CANTREGISTER_g = external global i64, align 8
@H5E_CANTSET_g = external global i64, align 8
@H5E_PLIST_g = external global i64, align 8
@H5E_CANTDEC_g = external global i64, align 8
@H5E_FUNC_g = external global i64, align 8
@H5E_CANTINIT_g = external global i64, align 8
@.str.16 = private unnamed_addr constant [32 x i8] c"interface initialization failed\00", align 1
@.str.30 = private unnamed_addr constant [22 x i8] c"can't set driver info\00", align 1
@.str.31 = private unnamed_addr constant [23 x i8] c"unable to register VFD\00", align 1
@.str.32 = private unnamed_addr constant [32 x i8] c"can't decrement count on VFD ID\00", align 1
@__func__.H5P_set_driver_by_value = private unnamed_addr constant [24 x i8] c"H5P_set_driver_by_value\00", align 1

; Function Attrs: nounwind uwtable
define i32 @H5P_set_driver_by_value(ptr noundef %0, i32 noundef %1, ptr noundef %2, i1 noundef zeroext %3) #0 {
  %5 = alloca ptr, align 8
  %6 = alloca i32, align 4
  %7 = alloca ptr, align 8
  %8 = alloca i8, align 1
  %9 = alloca i64, align 8
  %10 = alloca i32, align 4
  %11 = alloca i8, align 1
  store ptr %0, ptr %5, align 8, !tbaa !28
  store i32 %1, ptr %6, align 4, !tbaa !20
  store ptr %2, ptr %7, align 8, !tbaa !26
  %12 = zext i1 %3 to i8
  store i8 %12, ptr %8, align 1, !tbaa !22
  call void @llvm.lifetime.start.p0(i64 8, ptr %9) #10
  store i64 -1, ptr %9, align 8, !tbaa !8
  call void @llvm.lifetime.start.p0(i64 4, ptr %10) #10
  store i32 0, ptr %10, align 4, !tbaa !20
  call void @llvm.lifetime.start.p0(i64 1, ptr %11) #10
  store i8 0, ptr %11, align 1, !tbaa !22
  %13 = load i8, ptr @H5P_init_g, align 1, !tbaa !22, !range !24, !noundef !25
  %14 = trunc i8 %13 to i1
  br i1 %14, label %19, label %15

15:                                               ; preds = %4
  %16 = load i8, ptr @H5_libterm_g, align 1, !tbaa !22, !range !24, !noundef !25
  %17 = trunc i8 %16 to i1
  %18 = xor i1 %17, true
  br label %19

19:                                               ; preds = %15, %4
  %20 = phi i1 [ false, %4 ], [ %18, %15 ]
  %21 = xor i1 %20, true
  %22 = xor i1 %21, true
  %23 = zext i1 %22 to i32
  %24 = sext i32 %23 to i64
  %25 = call i64 @llvm.expect.i64(i64 %24, i64 0)
  %26 = icmp ne i64 %25, 0
  br i1 %26, label %27, label %50

27:                                               ; preds = %19
  store i8 1, ptr @H5P_init_g, align 1, !tbaa !22
  %28 = call i32 @H5P__init_package()
  %29 = icmp slt i32 %28, 0
  br i1 %29, label %30, label %49

30:                                               ; preds = %27
  store i8 0, ptr @H5P_init_g, align 1, !tbaa !22
  br label %31

31:                                               ; preds = %30
  br label %32

32:                                               ; preds = %31
  br label %33

33:                                               ; preds = %32
  %34 = load i64, ptr @H5E_FUNC_g, align 8, !tbaa !8
  %35 = load i64, ptr @H5E_CANTINIT_g, align 8, !tbaa !8
  %36 = call i32 (ptr, ptr, i32, i64, i64, ptr, ...) @H5E_printf_stack(ptr noundef @.str.2, ptr noundef @__func__.H5P_set_driver_by_value, i32 noundef 1340, i64 noundef %34, i64 noundef %35, ptr noundef @.str.16)
  br label %37

37:                                               ; preds = %33
  br label %38

38:                                               ; preds = %37
  store i8 1, ptr %11, align 1, !tbaa !22
  %39 = load i8, ptr %11, align 1, !tbaa !22, !range !24, !noundef !25
  %40 = trunc i8 %39 to i1
  %41 = zext i1 %40 to i8
  store i8 %41, ptr %11, align 1, !tbaa !22
  br label %42

42:                                               ; preds = %38
  br label %43

43:                                               ; preds = %42
  br label %44

44:                                               ; preds = %43
  store i32 -1, ptr %10, align 4, !tbaa !20
  br label %116

45:                                               ; No predecessors!
  br label %46

46:                                               ; preds = %45
  br label %47

47:                                               ; preds = %46
  br label %48

48:                                               ; preds = %47
  br label %49

49:                                               ; preds = %48, %27
  br label %50

50:                                               ; preds = %49, %19
  %51 = load i8, ptr @H5P_init_g, align 1, !tbaa !22, !range !24, !noundef !25
  %52 = trunc i8 %51 to i1
  br i1 %52, label %57, label %53

53:                                               ; preds = %50
  %54 = load i8, ptr @H5_libterm_g, align 1, !tbaa !22, !range !24, !noundef !25
  %55 = trunc i8 %54 to i1
  %56 = xor i1 %55, true
  br label %57

57:                                               ; preds = %53, %50
  %58 = phi i1 [ true, %50 ], [ %56, %53 ]
  %59 = xor i1 %58, true
  %60 = xor i1 %59, true
  %61 = zext i1 %60 to i32
  %62 = sext i32 %61 to i64
  %63 = call i64 @llvm.expect.i64(i64 %62, i64 1)
  %64 = icmp ne i64 %63, 0
  br i1 %64, label %65, label %144

65:                                               ; preds = %57
  %66 = load i32, ptr %6, align 4, !tbaa !20
  %67 = load i8, ptr %8, align 1, !tbaa !22, !range !24, !noundef !25
  %68 = trunc i8 %67 to i1
  %69 = call i64 @H5FD_register_driver_by_value(i32 noundef %66, i1 noundef zeroext %68)
  store i64 %69, ptr %9, align 8, !tbaa !8
  %70 = icmp slt i64 %69, 0
  br i1 %70, label %71, label %90

71:                                               ; preds = %65
  br label %72

72:                                               ; preds = %71
  br label %73

73:                                               ; preds = %72
  br label %74

74:                                               ; preds = %73
  %75 = load i64, ptr @H5E_VFL_g, align 8, !tbaa !8
  %76 = load i64, ptr @H5E_CANTREGISTER_g, align 8, !tbaa !8
  %77 = call i32 (ptr, ptr, i32, i64, i64, ptr, ...) @H5E_printf_stack(ptr noundef @.str.2, ptr noundef @__func__.H5P_set_driver_by_value, i32 noundef 1347, i64 noundef %75, i64 noundef %76, ptr noundef @.str.31)
  br label %78

78:                                               ; preds = %74
  br label %79

79:                                               ; preds = %78
  store i8 1, ptr %11, align 1, !tbaa !22
  %80 = load i8, ptr %11, align 1, !tbaa !22, !range !24, !noundef !25
  %81 = trunc i8 %80 to i1
  %82 = zext i1 %81 to i8
  store i8 %82, ptr %11, align 1, !tbaa !22
  br label %83

83:                                               ; preds = %79
  br label %84

84:                                               ; preds = %83
  br label %85

85:                                               ; preds = %84
  store i32 -1, ptr %10, align 4, !tbaa !20
  br label %116

86:                                               ; No predecessors!
  br label %87

87:                                               ; preds = %86
  br label %88

88:                                               ; preds = %87
  br label %89

89:                                               ; preds = %88
  br label %90

90:                                               ; preds = %89, %65
  %91 = load ptr, ptr %5, align 8, !tbaa !28
  %92 = load i64, ptr %9, align 8, !tbaa !8
  %93 = load ptr, ptr %7, align 8, !tbaa !26
  %94 = call i32 @H5P_set_driver(ptr noundef %91, i64 noundef %92, ptr noundef null, ptr noundef %93)
  %95 = icmp slt i32 %94, 0
  br i1 %95, label %96, label %115

96:                                               ; preds = %90
  br label %97

97:                                               ; preds = %96
  br label %98

98:                                               ; preds = %97
  br label %99

99:                                               ; preds = %98
  %100 = load i64, ptr @H5E_PLIST_g, align 8, !tbaa !8
  %101 = load i64, ptr @H5E_CANTSET_g, align 8, !tbaa !8
  %102 = call i32 (ptr, ptr, i32, i64, i64, ptr, ...) @H5E_printf_stack(ptr noundef @.str.2, ptr noundef @__func__.H5P_set_driver_by_value, i32 noundef 1351, i64 noundef %100, i64 noundef %101, ptr noundef @.str.30)
  br label %103

103:                                              ; preds = %99
  br label %104

104:                                              ; preds = %103
  store i8 1, ptr %11, align 1, !tbaa !22
  %105 = load i8, ptr %11, align 1, !tbaa !22, !range !24, !noundef !25
  %106 = trunc i8 %105 to i1
  %107 = zext i1 %106 to i8
  store i8 %107, ptr %11, align 1, !tbaa !22
  br label %108

108:                                              ; preds = %104
  br label %109

109:                                              ; preds = %108
  br label %110

110:                                              ; preds = %109
  store i32 -1, ptr %10, align 4, !tbaa !20
  br label %116

111:                                              ; No predecessors!
  br label %112

112:                                              ; preds = %111
  br label %113

113:                                              ; preds = %112
  br label %114

114:                                              ; preds = %113
  br label %115

115:                                              ; preds = %114, %90
  br label %116

116:                                              ; preds = %115, %110, %85, %44
  %117 = load i32, ptr %10, align 4, !tbaa !20
  %118 = icmp slt i32 %117, 0
  br i1 %118, label %119, label %143

119:                                              ; preds = %116
  %120 = load i64, ptr %9, align 8, !tbaa !8
  %121 = icmp sge i64 %120, 0
  br i1 %121, label %122, label %142

122:                                              ; preds = %119
  %123 = load i64, ptr %9, align 8, !tbaa !8
  %124 = call i32 @H5I_dec_app_ref(i64 noundef %123)
  %125 = icmp slt i32 %124, 0
  br i1 %125, label %126, label %142

126:                                              ; preds = %122
  br label %127

127:                                              ; preds = %126
  br label %128

128:                                              ; preds = %127
  br label %129

129:                                              ; preds = %128
  %130 = load i64, ptr @H5E_PLIST_g, align 8, !tbaa !8
  %131 = load i64, ptr @H5E_CANTDEC_g, align 8, !tbaa !8
  %132 = call i32 (ptr, ptr, i32, i64, i64, ptr, ...) @H5E_printf_stack(ptr noundef @.str.2, ptr noundef @__func__.H5P_set_driver_by_value, i32 noundef 1356, i64 noundef %130, i64 noundef %131, ptr noundef @.str.32)
  br label %133

133:                                              ; preds = %129
  br label %134

134:                                              ; preds = %133
  store i8 1, ptr %11, align 1, !tbaa !22
  %135 = load i8, ptr %11, align 1, !tbaa !22, !range !24, !noundef !25
  %136 = trunc i8 %135 to i1
  %137 = zext i1 %136 to i8
  store i8 %137, ptr %11, align 1, !tbaa !22
  br label %138

138:                                              ; preds = %134
  br label %139

139:                                              ; preds = %138
  store i32 -1, ptr %10, align 4, !tbaa !20
  br label %140

140:                                              ; preds = %139
  br label %141

141:                                              ; preds = %140
  br label %142

142:                                              ; preds = %141, %122, %119
  br label %143

143:                                              ; preds = %142, %116
  br label %144

144:                                              ; preds = %143, %57
  %145 = load i32, ptr %10, align 4, !tbaa !20
  call void @llvm.lifetime.end.p0(i64 1, ptr %11) #10
  call void @llvm.lifetime.end.p0(i64 4, ptr %10) #10
  call void @llvm.lifetime.end.p0(i64 8, ptr %9) #10
  ret i32 %145
}