; Function Attrs: nounwind uwtable
define range(i32 -1, 1) i32 @H5P_set_driver_by_value(ptr noundef %0, i32 noundef %1, ptr noundef %2, i1 noundef zeroext %3) local_unnamed_addr #0 {
  %5 = load i8, ptr @H5P_init_g, align 1, !tbaa !16, !range !18, !noundef !19
  %6 = trunc nuw i8 %5 to i1
  %7 = load i8, ptr @H5_libterm_g, align 1, !range !18
  %8 = trunc nuw i8 %7 to i1
  %9 = select i1 %6, i1 true, i1 %8
  br i1 %9, label %17, label %10, !prof !20

10:                                               ; preds = %4
  store i8 1, ptr @H5P_init_g, align 1, !tbaa !16
  %11 = tail call i32 @H5P__init_package() #15
  %12 = icmp slt i32 %11, 0
  br i1 %12, label %13, label %._crit_edge

._crit_edge:                                      ; preds = %10
  %.pre = load i8, ptr @H5P_init_g, align 1, !tbaa !16, !range !18
  %.pre19 = load i8, ptr @H5_libterm_g, align 1, !range !18
  %.pre20 = trunc nuw i8 %.pre to i1
  %.pre21 = trunc nuw i8 %.pre19 to i1
  br label %17

13:                                               ; preds = %10
  store i8 0, ptr @H5P_init_g, align 1, !tbaa !16
  %14 = load i64, ptr @H5E_FUNC_g, align 8, !tbaa !3
  %15 = load i64, ptr @H5E_CANTINIT_g, align 8, !tbaa !3
  %16 = tail call i32 (ptr, ptr, i32, i64, i64, ptr, ...) @H5E_printf_stack(ptr noundef nonnull @.str.2, ptr noundef nonnull @__func__.H5P_set_driver_by_value, i32 noundef 1340, i64 noundef %14, i64 noundef %15, ptr noundef nonnull @.str.16) #15
  br label %.thread

17:                                               ; preds = %._crit_edge, %4
  %.pre-phi22 = phi i1 [ %.pre21, %._crit_edge ], [ %8, %4 ]
  %.pre-phi = phi i1 [ %.pre20, %._crit_edge ], [ %6, %4 ]
  %18 = xor i1 %.pre-phi22, true
  %19 = select i1 %.pre-phi, i1 true, i1 %18
  br i1 %19, label %20, label %.thread, !prof !20

20:                                               ; preds = %17
  %21 = tail call i64 @H5FD_register_driver_by_value(i32 noundef %1, i1 noundef zeroext %3) #15
  %22 = icmp slt i64 %21, 0
  br i1 %22, label %23, label %27

23:                                               ; preds = %20
  %24 = load i64, ptr @H5E_VFL_g, align 8, !tbaa !3
  %25 = load i64, ptr @H5E_CANTREGISTER_g, align 8, !tbaa !3
  %26 = tail call i32 (ptr, ptr, i32, i64, i64, ptr, ...) @H5E_printf_stack(ptr noundef nonnull @.str.2, ptr noundef nonnull @__func__.H5P_set_driver_by_value, i32 noundef 1347, i64 noundef %24, i64 noundef %25, ptr noundef nonnull @.str.31) #15
  br label %.thread

27:                                               ; preds = %20
  %28 = tail call i32 @H5P_set_driver(ptr noundef %0, i64 noundef %21, ptr noundef null, ptr noundef %2)
  %29 = icmp slt i32 %28, 0
  br i1 %29, label %30, label %.thread

30:                                               ; preds = %27
  %31 = load i64, ptr @H5E_PLIST_g, align 8, !tbaa !3
  %32 = load i64, ptr @H5E_CANTSET_g, align 8, !tbaa !3
  %33 = tail call i32 (ptr, ptr, i32, i64, i64, ptr, ...) @H5E_printf_stack(ptr noundef nonnull @.str.2, ptr noundef nonnull @__func__.H5P_set_driver_by_value, i32 noundef 1351, i64 noundef %31, i64 noundef %32, ptr noundef nonnull @.str.30) #15
  %34 = tail call i32 @H5I_dec_app_ref(i64 noundef %21) #15
  %35 = icmp slt i32 %34, 0
  br i1 %35, label %36, label %.thread

36:                                               ; preds = %30
  %37 = load i64, ptr @H5E_PLIST_g, align 8, !tbaa !3
  %38 = load i64, ptr @H5E_CANTDEC_g, align 8, !tbaa !3
  %39 = tail call i32 (ptr, ptr, i32, i64, i64, ptr, ...) @H5E_printf_stack(ptr noundef nonnull @.str.2, ptr noundef nonnull @__func__.H5P_set_driver_by_value, i32 noundef 1356, i64 noundef %37, i64 noundef %38, ptr noundef nonnull @.str.32) #15
  br label %.thread

.thread:                                          ; preds = %23, %13, %27, %36, %30, %17
  %.1 = phi i32 [ -1, %36 ], [ -1, %30 ], [ 0, %17 ], [ 0, %27 ], [ -1, %23 ], [ -1, %13 ]
  ret i32 %.1
}